#include <math.h>
#include <stdio.h>
#include <stdlib.h>
#include <string.h>

int main()
{
	char s[50],w[50];
scanf("%s ",s);
scanf("%s", w);
	int i,j=0;
	for(i=0;i<strlen(w);i++)
	{
		for(;j<strlen(s);)
		{
			if(s[j]==w[i])
			{
				j++;
			}
				break;
				
			
		}
		if(j==strlen(s))
		{
			printf("%d",i-j+1);
			break;
		}
	}

	return 0;
}

