; ModuleID = 'source-C-CXX/44/2809.c'
source_filename = "source-C-CXX/44/2809.c"
target datalayout = "e-m:e-p270:32:32-p271:32:32-p272:64:64-i64:64-f80:128-n8:16:32:64-S128"
target triple = "x86_64-pc-linux-gnu"

@.str = private unnamed_addr constant [4 x i8] c"%s \00", align 1
@.str.1 = private unnamed_addr constant [3 x i8] c"%s\00", align 1
@.str.2 = private unnamed_addr constant [3 x i8] c"%d\00", align 1

; Function Attrs: nofree nounwind sspstrong uwtable
define dso_local i32 @main() local_unnamed_addr #0 {
  %1 = alloca [50 x i8], align 16
  %2 = alloca [50 x i8], align 16
  %3 = getelementptr inbounds [50 x i8], [50 x i8]* %1, i64 0, i64 0
  call void @llvm.lifetime.start.p0i8(i64 50, i8* nonnull %3) #4
  %4 = getelementptr inbounds [50 x i8], [50 x i8]* %2, i64 0, i64 0
  call void @llvm.lifetime.start.p0i8(i64 50, i8* nonnull %4) #4
  %5 = call i32 (i8*, ...) @__isoc99_scanf(i8* getelementptr inbounds ([4 x i8], [4 x i8]* @.str, i64 0, i64 0), i8* nonnull %3)
  %6 = call i32 (i8*, ...) @__isoc99_scanf(i8* getelementptr inbounds ([3 x i8], [3 x i8]* @.str.1, i64 0, i64 0), i8* nonnull %4)
  %7 = call i64 @strlen(i8* noundef nonnull %4) #5
  %8 = icmp eq i64 %7, 0
  br i1 %8, label %37, label %9

9:                                                ; preds = %0
  %10 = call i64 @strlen(i8* noundef nonnull %3) #5
  br label %11

11:                                               ; preds = %9, %34
  %12 = phi i64 [ 0, %9 ], [ %35, %34 ]
  %13 = phi i32 [ 0, %9 ], [ %27, %34 ]
  %14 = sext i32 %13 to i64
  %15 = icmp ugt i64 %10, %14
  br i1 %15, label %16, label %25

16:                                               ; preds = %11
  %17 = getelementptr inbounds [50 x i8], [50 x i8]* %1, i64 0, i64 %14
  %18 = load i8, i8* %17, align 1, !tbaa !5
  %19 = getelementptr inbounds [50 x i8], [50 x i8]* %2, i64 0, i64 %12
  %20 = load i8, i8* %19, align 1, !tbaa !5
  %21 = icmp eq i8 %18, %20
  %22 = zext i1 %21 to i32
  %23 = add nsw i32 %13, %22
  %24 = sext i32 %23 to i64
  br label %25

25:                                               ; preds = %16, %11
  %26 = phi i64 [ %24, %16 ], [ %14, %11 ]
  %27 = phi i32 [ %23, %16 ], [ %13, %11 ]
  %28 = icmp eq i64 %10, %26
  br i1 %28, label %29, label %34

29:                                               ; preds = %25
  %30 = trunc i64 %12 to i32
  %31 = add nuw i32 %30, 1
  %32 = sub i32 %31, %27
  %33 = call i32 (i8*, ...) @printf(i8* nonnull dereferenceable(1) getelementptr inbounds ([3 x i8], [3 x i8]* @.str.2, i64 0, i64 0), i32 %32)
  br label %37

34:                                               ; preds = %25
  %35 = add nuw i64 %12, 1
  %36 = icmp eq i64 %35, %7
  br i1 %36, label %37, label %11, !llvm.loop !8

37:                                               ; preds = %34, %0, %29
  call void @llvm.lifetime.end.p0i8(i64 50, i8* nonnull %4) #4
  call void @llvm.lifetime.end.p0i8(i64 50, i8* nonnull %3) #4
  ret i32 0
}

; Function Attrs: argmemonly mustprogress nofree nosync nounwind willreturn
declare void @llvm.lifetime.start.p0i8(i64 immarg, i8* nocapture) #1

; Function Attrs: nofree nounwind
declare noundef i32 @__isoc99_scanf(i8* nocapture noundef readonly, ...) local_unnamed_addr #2

; Function Attrs: argmemonly mustprogress nofree nounwind readonly willreturn
declare i64 @strlen(i8* nocapture) local_unnamed_addr #3

; Function Attrs: nofree nounwind
declare noundef i32 @printf(i8* nocapture noundef readonly, ...) local_unnamed_addr #2

; Function Attrs: argmemonly mustprogress nofree nosync nounwind willreturn
declare void @llvm.lifetime.end.p0i8(i64 immarg, i8* nocapture) #1


!llvm.module.flags = !{!0, !1, !2, !3}
!llvm.ident = !{!4}

!0 = !{i32 1, !"wchar_size", i32 4}
!1 = !{i32 7, !"PIC Level", i32 2}
!2 = !{i32 7, !"PIE Level", i32 2}
!3 = !{i32 7, !"uwtable", i32 1}
!4 = !{!"clang version 13.0.0"}
!5 = !{!6, !6, i64 0}
!6 = !{!"omnipotent char", !7, i64 0}
!7 = !{!"Simple C/C++ TBAA"}
!8 = distinct !{!8, !9}
!9 = !{!"llvm.loop.mustprogress"}
